target datalayout = "e-m:e-p270:32:32-p271:32:32-p272:64:64-i64:64-i128:128-f80:128-n8:16:32:64-S128"
target triple = "x86_64-pc-linux-gnu"

@proto_register_papi.ett = internal global [3 x ptr] [ptr @ett_papi, ptr @ett_papi_licmgr, ptr @ett_papi_licmgr_tlv], align 16
@.str.98 = private unnamed_addr constant [11 x i8] c"Aruba PAPI\00", align 1
@.str.99 = private unnamed_addr constant [5 x i8] c"PAPI\00", align 1
@.str.100 = private unnamed_addr constant [5 x i8] c"papi\00", align 1
@proto_papi = internal global i32 0, align 4
@.str.101 = private unnamed_addr constant [10 x i8] c"papi.port\00", align 1
@.str.102 = private unnamed_addr constant [14 x i8] c"PAPI protocol\00", align 1
@papi_dissector_table = internal global ptr null, align 8
@.str.103 = private unnamed_addr constant [20 x i8] c"experimental_decode\00", align 1
@.str.104 = private unnamed_addr constant [23 x i8] c"Do experimental decode\00", align 1
@.str.105 = private unnamed_addr constant [72 x i8] c"Attempt to decode parts of the message that aren't fully understood yet\00", align 1
@g_papi_debug = internal global i8 0, align 1
@papi_handle = internal global ptr null, align 8

; Function Attrs: null_pointer_is_valid sspstrong uwtable
define hidden void @proto_register_papi() #0 {
  %1 = alloca ptr, align 8
  %2 = alloca ptr, align 8
  call void @llvm.lifetime.start.p0(i64 8, ptr %1) #3
  call void @llvm.lifetime.start.p0(i64 8, ptr %2) #3
  %3 = call i32 @proto_register_protocol(ptr noundef @.str.98, ptr noundef @.str.99, ptr noundef @.str.100)
  store i32 %3, ptr @proto_papi, align 4
  %4 = load i32, ptr @proto_papi, align 4
  call void @proto_register_field_array(i32 noundef %4, ptr noundef @proto_register_papi.hf, i32 noundef 47)
  call void @proto_register_subtree_array(ptr noundef @proto_register_papi.ett, i32 noundef 3)
  %5 = load i32, ptr @proto_papi, align 4
  %6 = call ptr @expert_register_protocol(i32 noundef %5)
  store ptr %6, ptr %2, align 8
  %7 = load ptr, ptr %2, align 8
  call void @expert_register_field_array(ptr noundef %7, ptr noundef @proto_register_papi.ei, i32 noundef 1)
  %8 = load i32, ptr @proto_papi, align 4
  %9 = call ptr @prefs_register_protocol(i32 noundef %8, ptr noundef null)
  store ptr %9, ptr %1, align 8
  %10 = load i32, ptr @proto_papi, align 4
  %11 = call ptr @register_dissector_table(ptr noundef @.str.101, ptr noundef @.str.102, i32 noundef %10, i32 noundef 5, i32 noundef 1)
  store ptr %11, ptr @papi_dissector_table, align 8
  %12 = load ptr, ptr %1, align 8
  call void @prefs_register_bool_preference(ptr noundef %12, ptr noundef @.str.103, ptr noundef @.str.104, ptr noundef @.str.105, ptr noundef @g_papi_debug)
  %13 = load i32, ptr @proto_papi, align 4
  %14 = call ptr @register_dissector(ptr noundef @.str.100, ptr noundef @dissect_papi, i32 noundef %13)
  store ptr %14, ptr @papi_handle, align 8
  call void @llvm.lifetime.end.p0(i64 8, ptr %2) #3
  call void @llvm.lifetime.end.p0(i64 8, ptr %1) #3
  ret void
}