; Function Attrs: null_pointer_is_valid sspstrong uwtable
define hidden void @proto_register_papi() local_unnamed_addr #0 {
  %1 = tail call i32 @proto_register_protocol(ptr noundef nonnull @.str.98, ptr noundef nonnull @.str.99, ptr noundef nonnull @.str.100)
  store i32 %1, ptr @proto_papi, align 4
  tail call void @proto_register_field_array(i32 noundef %1, ptr noundef nonnull @proto_register_papi.hf, i32 noundef 47)
  tail call void @proto_register_subtree_array(ptr noundef nonnull @proto_register_papi.ett, i32 noundef 3)
  %2 = load i32, ptr @proto_papi, align 4
  %3 = tail call ptr @expert_register_protocol(i32 noundef %2)
  tail call void @expert_register_field_array(ptr noundef %3, ptr noundef nonnull @proto_register_papi.ei, i32 noundef 1)
  %4 = load i32, ptr @proto_papi, align 4
  %5 = tail call ptr @prefs_register_protocol(i32 noundef %4, ptr noundef null)
  %6 = load i32, ptr @proto_papi, align 4
  %7 = tail call ptr @register_dissector_table(ptr noundef nonnull @.str.101, ptr noundef nonnull @.str.102, i32 noundef %6, i32 noundef 5, i32 noundef 1)
  store ptr %7, ptr @papi_dissector_table, align 8
  tail call void @prefs_register_bool_preference(ptr noundef %5, ptr noundef nonnull @.str.103, ptr noundef nonnull @.str.104, ptr noundef nonnull @.str.105, ptr noundef nonnull @g_papi_debug)
  %8 = load i32, ptr @proto_papi, align 4
  %9 = tail call ptr @register_dissector(ptr noundef nonnull @.str.100, ptr noundef nonnull @dissect_papi, i32 noundef %8)
  store ptr %9, ptr @papi_handle, align 8
  ret void
}